
Allocating common symbols
Common symbol       size              file

BPB                 0x4               ../bin/obj/kc.o
prdt                0x4               ../bin/obj/ATA.o
before_int_ax       0x2               ../bin/obj/isr.o
tckcounter          0x1               ../bin/obj/isr.o
tasks               0x3c00            ../bin/obj/kc.o
response_init       0x4               ../bin/obj/api_kernel.o
systeminfo          0x74              ../bin/obj/kc.o
key_bfr             0x4               ../bin/obj/keyboard.o
response_default    0x4               ../bin/obj/api_kernel.o
screen              0x4               ../bin/obj/vesa.o
int_stack           0x4               ../bin/obj/isr.o
mem_table           0x40000           ../bin/obj/memory.o
tss                 0x68              ../bin/obj/gdt.o
VendorID            0x4               ../bin/obj/cpu.o
cpuvend             0x4               ../bin/obj/cpu.o
current_vid_mode_inf
                    0x4               ../bin/obj/kc.o
last_interrupt      0x1               ../bin/obj/isr.o
segments            0x4               ../bin/obj/kc.o
before_int_di       0x2               ../bin/obj/isr.o
vfs_info            0xc               ../bin/obj/kc.o
counter             0x2               ../bin/obj/isr.o
mouse_cycle         0x1               ../bin/obj/isr.o
mouse_byte          0x2               ../bin/obj/isr.o
BMR                 0x4               ../bin/obj/ATA.o
pci_devices         0x600             ../bin/obj/kc.o
api_processes       0x800             ../bin/obj/api_kernel.o
key_bfr_codes       0x4               ../bin/obj/keyboard.o
devices             0x80              ../bin/obj/kc.o
MEM_MAX             0x4               ../bin/obj/memory.o
ROOTDIR             0x4               ../bin/obj/fat.o
func_ptr            0x4               ../bin/obj/kc.o
abar                0x4               ../bin/obj/kc.o

Discarded input sections

 .group         0x0000000000000000        0x8 ../bin/obj/kc.o
 .group         0x0000000000000000        0x8 ../bin/obj/kc.o
 .group         0x0000000000000000        0x8 ../bin/obj/sys.o
 .text.__x86.get_pc_thunk.ax
                0x0000000000000000        0x4 ../bin/obj/sys.o
 .group         0x0000000000000000        0x8 ../bin/obj/screen.o
 .group         0x0000000000000000        0x8 ../bin/obj/screen.o
 .text.__x86.get_pc_thunk.ax
                0x0000000000000000        0x4 ../bin/obj/screen.o
 .text.__x86.get_pc_thunk.bx
                0x0000000000000000        0x4 ../bin/obj/screen.o
 .group         0x0000000000000000        0x8 ../bin/obj/gdt.o
 .group         0x0000000000000000        0x8 ../bin/obj/gdt.o
 .text.__x86.get_pc_thunk.ax
                0x0000000000000000        0x4 ../bin/obj/gdt.o
 .text.__x86.get_pc_thunk.bx
                0x0000000000000000        0x4 ../bin/obj/gdt.o
 .group         0x0000000000000000        0x8 ../bin/obj/hardw.o
 .group         0x0000000000000000        0x8 ../bin/obj/hardw.o
 .text.__x86.get_pc_thunk.ax
                0x0000000000000000        0x4 ../bin/obj/hardw.o
 .text.__x86.get_pc_thunk.bx
                0x0000000000000000        0x4 ../bin/obj/hardw.o
 .group         0x0000000000000000        0x8 ../bin/obj/cpu.o
 .group         0x0000000000000000        0x8 ../bin/obj/cpu.o
 .text.__x86.get_pc_thunk.ax
                0x0000000000000000        0x4 ../bin/obj/cpu.o
 .text.__x86.get_pc_thunk.bx
                0x0000000000000000        0x4 ../bin/obj/cpu.o
 .group         0x0000000000000000        0x8 ../bin/obj/isr.o
 .group         0x0000000000000000        0x8 ../bin/obj/isr.o
 .text.__x86.get_pc_thunk.ax
                0x0000000000000000        0x4 ../bin/obj/isr.o
 .text.__x86.get_pc_thunk.bx
                0x0000000000000000        0x4 ../bin/obj/isr.o
 .group         0x0000000000000000        0x8 ../bin/obj/util.o
 .group         0x0000000000000000        0x8 ../bin/obj/util.o
 .text.__x86.get_pc_thunk.ax
                0x0000000000000000        0x4 ../bin/obj/util.o
 .text.__x86.get_pc_thunk.bx
                0x0000000000000000        0x4 ../bin/obj/util.o
 .group         0x0000000000000000        0x8 ../bin/obj/errorHandl.o
 .text.__x86.get_pc_thunk.bx
                0x0000000000000000        0x4 ../bin/obj/errorHandl.o
 .group         0x0000000000000000        0x8 ../bin/obj/keyboard.o
 .group         0x0000000000000000        0x8 ../bin/obj/keyboard.o
 .text.__x86.get_pc_thunk.ax
                0x0000000000000000        0x4 ../bin/obj/keyboard.o
 .text.__x86.get_pc_thunk.bx
                0x0000000000000000        0x4 ../bin/obj/keyboard.o
 .group         0x0000000000000000        0x8 ../bin/obj/memory.o
 .text.__x86.get_pc_thunk.ax
                0x0000000000000000        0x4 ../bin/obj/memory.o
 .group         0x0000000000000000        0x8 ../bin/obj/pci.o
 .group         0x0000000000000000        0x8 ../bin/obj/pci.o
 .group         0x0000000000000000        0x8 ../bin/obj/pci.o
 .text.__x86.get_pc_thunk.ax
                0x0000000000000000        0x4 ../bin/obj/pci.o
 .text.__x86.get_pc_thunk.bx
                0x0000000000000000        0x4 ../bin/obj/pci.o
 .group         0x0000000000000000        0x8 ../bin/obj/ahci.o
 .group         0x0000000000000000        0x8 ../bin/obj/ahci.o
 .text.__x86.get_pc_thunk.ax
                0x0000000000000000        0x4 ../bin/obj/ahci.o
 .text.__x86.get_pc_thunk.bx
                0x0000000000000000        0x4 ../bin/obj/ahci.o
 .group         0x0000000000000000        0x8 ../bin/obj/ATA.o
 .group         0x0000000000000000        0x8 ../bin/obj/ATA.o
 .text.__x86.get_pc_thunk.ax
                0x0000000000000000        0x4 ../bin/obj/ATA.o
 .text.__x86.get_pc_thunk.bx
                0x0000000000000000        0x4 ../bin/obj/ATA.o
 .group         0x0000000000000000        0x8 ../bin/obj/fat.o
 .group         0x0000000000000000        0x8 ../bin/obj/fat.o
 .text.__x86.get_pc_thunk.ax
                0x0000000000000000        0x4 ../bin/obj/fat.o
 .text.__x86.get_pc_thunk.bx
                0x0000000000000000        0x4 ../bin/obj/fat.o
 .group         0x0000000000000000        0x8 ../bin/obj/hdd.o
 .text.__x86.get_pc_thunk.bx
                0x0000000000000000        0x4 ../bin/obj/hdd.o
 .group         0x0000000000000000        0x8 ../bin/obj/iso.o
 .text.__x86.get_pc_thunk.ax
                0x0000000000000000        0x4 ../bin/obj/iso.o
 .group         0x0000000000000000        0x8 ../bin/obj/DRVhandl.o
 .group         0x0000000000000000        0x8 ../bin/obj/DRVhandl.o
 .text.__x86.get_pc_thunk.ax
                0x0000000000000000        0x4 ../bin/obj/DRVhandl.o
 .text.__x86.get_pc_thunk.bx
                0x0000000000000000        0x4 ../bin/obj/DRVhandl.o
 .group         0x0000000000000000        0x8 ../bin/obj/multitasking.o
 .group         0x0000000000000000        0x8 ../bin/obj/multitasking.o
 .group         0x0000000000000000        0x8 ../bin/obj/multitasking.o
 .text.__x86.get_pc_thunk.ax
                0x0000000000000000        0x4 ../bin/obj/multitasking.o
 .text.__x86.get_pc_thunk.dx
                0x0000000000000000        0x4 ../bin/obj/multitasking.o
 .text.__x86.get_pc_thunk.bx
                0x0000000000000000        0x4 ../bin/obj/multitasking.o
 .group         0x0000000000000000        0x8 ../bin/obj/v86c.o
 .text.__x86.get_pc_thunk.ax
                0x0000000000000000        0x4 ../bin/obj/v86c.o
 .group         0x0000000000000000        0x8 ../bin/obj/vesa.o
 .group         0x0000000000000000        0x8 ../bin/obj/vesa.o
 .text.__x86.get_pc_thunk.ax
                0x0000000000000000        0x4 ../bin/obj/vesa.o
 .text.__x86.get_pc_thunk.bx
                0x0000000000000000        0x4 ../bin/obj/vesa.o
 .group         0x0000000000000000        0x8 ../bin/obj/api_kernel.o
 .group         0x0000000000000000        0x8 ../bin/obj/api_kernel.o
 .text.__x86.get_pc_thunk.bx
                0x0000000000000000        0x4 ../bin/obj/api_kernel.o

Memory Configuration

Name             Origin             Length             Attributes
*default*        0x0000000000000000 0xffffffffffffffff

Linker script and memory map

                0x0000000000200000                . = 0x200000

.text           0x0000000000200000     0x941a
 *(.text)
 .text          0x0000000000200000     0x20ad ../bin/obj/kasm.o
                0x000000000020000c                start
                0x0000000000200021                paging
 .text          0x00000000002020ad      0x260 ../bin/obj/kc.o
                0x00000000002020ad                main
                0x0000000000202239                kernel_thing
                0x0000000000202260                kernel_version
 .text          0x000000000020230d      0x157 ../bin/obj/sys.o
                0x000000000020230d                inb
                0x0000000000202334                inw
                0x000000000020235d                outb
                0x0000000000202388                outw
                0x00000000002023b3                outl
                0x00000000002023d5                inl
                0x00000000002023fb                sysinlong
                0x0000000000202421                outsw
 .text          0x0000000000202464      0x734 ../bin/obj/screen.o
                0x0000000000202464                updCurs
                0x00000000002024ed                setcolor
                0x0000000000202506                trace
                0x0000000000202608                putchar
                0x0000000000202778                TextModeVideoMemDump
                0x00000000002027bd                print
                0x000000000020281f                printline
                0x000000000020289e                linecheck
                0x00000000002028d3                clearl
                0x000000000020297f                clearscr
                0x00000000002029cd                scroll
                0x0000000000202ad1                disablecursor
                0x0000000000202b0d                paintscr
 .text          0x0000000000202b98      0x247 ../bin/obj/gdt.o
                0x0000000000202b98                Prep_TSS
                0x0000000000202c37                TSS_update_stack
                0x0000000000202c66                GDT
 *fill*         0x0000000000202ddf        0x1 
 .text          0x0000000000202de0       0x36 ../bin/obj/gdtasm.o
                0x0000000000202de0                gdt_set32
                0x0000000000202e12                CRzero
 .text          0x0000000000202e16      0x5c4 ../bin/obj/hardw.o
                0x0000000000202e16                setints
                0x0000000000202e4d                IRQclrmsk
                0x0000000000202ec3                IRQclrallmsks
                0x0000000000202efc                IRQmskall
                0x0000000000202f5e                IRQdisableall
                0x0000000000202f9a                IRQsetmsk
                0x000000000020300e                initpics
                0x00000000002030f2                inthndld
                0x0000000000203137                PIC_remap
                0x0000000000203220                PIT_init
                0x0000000000203279                inita20
                0x0000000000203317                DetectSpeed
                0x000000000020337f                keybsndcom
                0x00000000002033b0                keybwait
 .text          0x00000000002033da      0x12a ../bin/obj/cpu.o
                0x00000000002033da                idtent
                0x0000000000203408                setidt
                0x000000000020345e                CPUID
                0x000000000020348c                IDT_add
                0x00000000002034e9                cpuSetMSR
 .text          0x0000000000203504      0x92c ../bin/obj/isr.o
                0x0000000000203504                isrinst
                0x0000000000203661                isr0c
                0x000000000020369a                isr1c
                0x00000000002036e3                isr3c
                0x0000000000203730                isr4c
                0x0000000000203742                isr7c
                0x0000000000203789                isr8c
                0x00000000002037b0                isr11c
                0x00000000002037db                isr12c
                0x0000000000203807                isr13c
                0x0000000000203bc6                isr14c
                0x0000000000203bf1                isr15
                0x0000000000203c1d                isr20c
                0x0000000000203c6e                isr21c
                0x0000000000203cc3                isr2cc
                0x0000000000203dac                isr30c
                0x0000000000203de5                isr47c
 .text          0x0000000000203e30      0x67d ../bin/obj/util.o
                0x0000000000203e30                getBYTE
                0x0000000000203e65                getWORD
                0x0000000000203e9b                eqlstr
                0x0000000000203f1f                sleep
                0x0000000000203f60                timer_start
                0x0000000000203f7f                timer_end
                0x0000000000203fad                movestr
                0x0000000000204026                hasStr
                0x000000000020408a                hexstr
                0x00000000002040f1                intstr
                0x00000000002041a4                strlen
                0x00000000002041d5                TransformUpLowUC
                0x0000000000204285                util_c_transform_uc
                0x00000000002042e3                PartyChop
                0x0000000000204332                strtok
                0x0000000000204383                strsep
                0x00000000002043db                strpbrk
 *fill*         0x00000000002044ad        0x3 
 .text          0x00000000002044b0        0xa ../bin/obj/idta.o
                0x00000000002044b0                idt_set
 *fill*         0x00000000002044ba        0x6 
 .text          0x00000000002044c0      0x119 ../bin/obj/isra.o
                0x00000000002044c0                isr0
                0x00000000002044dc                isr1
                0x00000000002044ea                isr3
                0x0000000000204506                isr4
                0x000000000020450e                isr7
                0x0000000000204517                isr8
                0x0000000000204525                isr9
                0x0000000000204526                isr10
                0x0000000000204529                isr11
                0x000000000020453a                isr13
                0x0000000000204576                isr14
                0x0000000000204580                isr20
                0x00000000002045a7                isr21
                0x00000000002045be                isr2c
                0x00000000002045c7                isr30
                0x00000000002045d0                isr47
 *fill*         0x00000000002045d9        0x7 
 .text          0x00000000002045e0      0x185 ../bin/obj/asm.o
                0x00000000002045e0                PIT_initasm
                0x00000000002045ef                PIT_readcount
                0x0000000000204607                enable_A20
                0x0000000000204653                GetCPUVendor
                0x000000000020466d                TLBflush
                0x0000000000204677                getESP
                0x0000000000204682                TSS_flush
                0x000000000020468a                jmp_user_mode
                0x00000000002046ce                asm_fix_stack
                0x00000000002046ef                task1
                0x0000000000204708                task2
                0x0000000000204724                asm_stuff
                0x0000000000204741                jmp_back_kernel
                0x0000000000204755                memory_set_stack
                0x0000000000204761                StackPointer
 .text          0x0000000000204765      0x48d ../bin/obj/errorHandl.o
                0x0000000000204765                kernel_panic
                0x0000000000204864                kernel_panic_dump
                0x00000000002049db                InitFail
                0x0000000000204a3a                console_Warning
                0x0000000000204a8c                error
 .text          0x0000000000204bf2      0x56f ../bin/obj/keyboard.o
                0x0000000000204bf2                keybin
                0x0000000000204c78                keyboard_putonscr
                0x0000000000204dd4                IS_pressed
                0x0000000000204e07                hang_for_key
                0x0000000000204e41                ps2_keyb_init
                0x0000000000204e9a                mouse_write
                0x0000000000204ef6                mouse_read
                0x0000000000204f27                mouse_wait
                0x0000000000204fa4                ps2_mouse_init
                0x000000000020510a                ps2_wait_write
                0x000000000020513a                ps2_wait_read
 .text          0x0000000000205161      0x3fd ../bin/obj/memory.o
                0x0000000000205161                memory_init
                0x0000000000205182                GRUB_GetMemInfo
                0x0000000000205269                malloc
                0x00000000002053e8                demalloc
                0x000000000020544b                kmemset
                0x000000000020547b                MemCopy
                0x00000000002054d0                strcopy
                0x0000000000205521                strncpy
 .text          0x000000000020555e      0x691 ../bin/obj/pci.o
                0x000000000020555e                pci_init
                0x0000000000205722                pci_get_device
                0x000000000020580b                pci_get_val
                0x00000000002058ac                GetPCIDevice
                0x0000000000205a5b                pciConfigRead
                0x0000000000205b01                pciConfigWrite
                0x0000000000205ba5                pciGetInterruptLine
 .text          0x0000000000205bef      0x853 ../bin/obj/ahci.o
                0x0000000000205bef                AHCI_init
                0x0000000000205c6c                getBAR5
                0x0000000000205cf2                AHCI_setup_port
                0x0000000000205d24                search_drives
                0x0000000000205fa2                port_rebase
                0x0000000000206104                start_cmd
                0x0000000000206146                stop_cmd
                0x000000000020619c                Read_SATA
                0x00000000002063bc                find_cmdslot
 .text          0x0000000000206442      0xf1a ../bin/obj/ATA.o
                0x0000000000206442                ATA_init
                0x00000000002066c2                ATAPI_init
                0x00000000002066db                ATAwait
                0x000000000020670e                ATAPI_CHECK
                0x0000000000206837                ATA_swreset
                0x00000000002068cf                DRIVE_ERROR_DETECT
                0x0000000000206929                nIEN_rs
                0x0000000000206971                PIO_READ_ATA
                0x0000000000206b0b                PIO_WRITE_ATA
                0x0000000000206cf9                PIO_READ_ATAPI
                0x0000000000206f9a                DMA_ATA_SETUP
                0x0000000000207099                DMA_ATA_READ
                0x00000000002071eb                DMA_ATA_WRITE
                0x00000000002072ee                ATA_STANDARD
 .text          0x000000000020735c      0xbf8 ../bin/obj/fat.o
                0x000000000020735c                GetBootCodeFAT
                0x00000000002073a3                FATinit
                0x0000000000207450                GetFile
                0x00000000002074c9                FindFile
                0x00000000002075b7                FAT_Traverse
                0x000000000020766b                fat_find_dir
                0x0000000000207788                FindNextDir
                0x00000000002078ac                FAT32_WRITE_FILE
                0x00000000002079d2                FAT32_DIRPREP
                0x0000000000207aa0                FAT32_Write_cluster
                0x0000000000207af2                FAT32_READ_FILE
                0x0000000000207b5e                FAT_cluster_LBA
                0x0000000000207b96                FAT_read_table
                0x0000000000207c84                ReadDir
                0x0000000000207deb                FATFindFreeClusterChain
 .text          0x0000000000207f54      0x261 ../bin/obj/hdd.o
                0x0000000000207f54                get_drive_info
                0x0000000000208118                GetFirstSectLBA
 .text          0x00000000002081b5       0x19 ../bin/obj/iso.o
                0x00000000002081b5                iso_init
 .text          0x00000000002081ce      0x1f8 ../bin/obj/DRVhandl.o
                0x00000000002081ce                driver_type
                0x00000000002081fe                FindDriver
                0x0000000000208348                run_v86_driver
 *fill*         0x00000000002083c6        0xa 
 .text          0x00000000002083d0       0x79 ../bin/obj/v86.o
                0x00000000002083d0                v86_enter
                0x000000000020840a                do_exor
                0x0000000000208419                do_regs
                0x000000000020842b                v86_ret
 .text          0x0000000000208449      0x801 ../bin/obj/multitasking.o
                0x0000000000208449                Task_Save_State
                0x0000000000208557                task_timeguard
                0x000000000020875c                task_push
                0x0000000000208825                task_pop
                0x0000000000208a48                task_save
                0x0000000000208b96                task_findnew
                0x0000000000208be7                task_internal_ret_from_interrupt
 .text          0x0000000000208c4a      0x142 ../bin/obj/v86c.o
                0x0000000000208c4a                v86_linear_to_sgoff
                0x0000000000208c87                v86_sgoff_to_linear
                0x0000000000208cbc                v86_interrupt
                0x0000000000208d34                v86_save_state
 .text          0x0000000000208d8c      0x463 ../bin/obj/vesa.o
                0x0000000000208d8c                vesa_init
                0x0000000000208e7a                vesa_findmode
                0x0000000000209148                vesa_difference
                0x000000000020915d                vesa_put_pixel
 .text          0x00000000002091ef      0x22b ../bin/obj/api_kernel.o
                0x000000000020922c                api_init
                0x0000000000209335                api_error

.text.__x86.get_pc_thunk.ax
                0x000000000020941a        0x4
 .text.__x86.get_pc_thunk.ax
                0x000000000020941a        0x4 ../bin/obj/kc.o
                0x000000000020941a                __x86.get_pc_thunk.ax

.text.__x86.get_pc_thunk.bx
                0x000000000020941e        0x4
 .text.__x86.get_pc_thunk.bx
                0x000000000020941e        0x4 ../bin/obj/kc.o
                0x000000000020941e                __x86.get_pc_thunk.bx

.text.__x86.get_pc_thunk.dx
                0x0000000000209422        0x4
 .text.__x86.get_pc_thunk.dx
                0x0000000000209422        0x4 ../bin/obj/pci.o
                0x0000000000209422                __x86.get_pc_thunk.dx

.text.__x86.get_pc_thunk.cx
                0x0000000000209426        0x4
 .text.__x86.get_pc_thunk.cx
                0x0000000000209426        0x4 ../bin/obj/api_kernel.o
                0x0000000000209426                __x86.get_pc_thunk.cx

.iplt           0x0000000000209430        0x0
 .iplt          0x0000000000209430        0x0 ../bin/obj/stack.o

.rodata         0x000000000020942c      0x85f
 .rodata        0x000000000020942c       0x9a ../bin/obj/kc.o
 .rodata        0x00000000002094c6        0x3 ../bin/obj/screen.o
                0x00000000002094c6                height
                0x00000000002094c7                width
                0x00000000002094c8                depth
 .rodata        0x00000000002094c9       0xc6 ../bin/obj/isr.o
 .rodata        0x000000000020958f       0x1b ../bin/obj/util.o
 *fill*         0x00000000002095aa        0x2 
 .rodata        0x00000000002095ac      0x430 ../bin/obj/errorHandl.o
 .rodata        0x00000000002099dc       0x6d ../bin/obj/keyboard.o
 .rodata        0x0000000000209a49       0x36 ../bin/obj/pci.o
 *fill*         0x0000000000209a7f        0x1 
 .rodata        0x0000000000209a80       0x9a ../bin/obj/ahci.o
 .rodata        0x0000000000209b1a       0xa1 ../bin/obj/ATA.o
 .rodata        0x0000000000209bbb        0xb ../bin/obj/fat.o
 .rodata        0x0000000000209bc6       0x11 ../bin/obj/hdd.o
 .rodata        0x0000000000209bd7       0x54 ../bin/obj/DRVhandl.o
 .rodata        0x0000000000209c2b       0x60 ../bin/obj/multitasking.o

.eh_frame       0x0000000000209c8c     0x1878
 .eh_frame      0x0000000000209c8c       0xac ../bin/obj/kc.o
 .eh_frame      0x0000000000209d38      0x100 ../bin/obj/sys.o
                                        0x12c (size before relaxing)
 .eh_frame      0x0000000000209e38      0x1c8 ../bin/obj/screen.o
                                        0x208 (size before relaxing)
 .eh_frame      0x000000000020a000       0x8c ../bin/obj/gdt.o
                                         0xcc (size before relaxing)
 .eh_frame      0x000000000020a08c      0x1fc ../bin/obj/hardw.o
                                        0x23c (size before relaxing)
 .eh_frame      0x000000000020a288       0xa4 ../bin/obj/cpu.o
                                         0xe4 (size before relaxing)
 .eh_frame      0x000000000020a32c      0x260 ../bin/obj/isr.o
                                        0x2a0 (size before relaxing)
 .eh_frame      0x000000000020a58c      0x24c ../bin/obj/util.o
                                        0x28c (size before relaxing)
 .eh_frame      0x000000000020a7d8       0xa4 ../bin/obj/errorHandl.o
                                         0xd0 (size before relaxing)
 .eh_frame      0x000000000020a87c      0x188 ../bin/obj/keyboard.o
                                        0x1c8 (size before relaxing)
 .eh_frame      0x000000000020aa04      0x10c ../bin/obj/memory.o
                                        0x138 (size before relaxing)
 .eh_frame      0x000000000020ab10      0x128 ../bin/obj/pci.o
                                        0x168 (size before relaxing)
 .eh_frame      0x000000000020ac38      0x160 ../bin/obj/ahci.o
                                        0x1a0 (size before relaxing)
 .eh_frame      0x000000000020ad98      0x1f8 ../bin/obj/ATA.o
                                        0x238 (size before relaxing)
 .eh_frame      0x000000000020af90      0x228 ../bin/obj/fat.o
                                        0x268 (size before relaxing)
 .eh_frame      0x000000000020b1b8       0x48 ../bin/obj/hdd.o
                                         0x74 (size before relaxing)
 .eh_frame      0x000000000020b200       0x20 ../bin/obj/iso.o
                                         0x4c (size before relaxing)
 .eh_frame      0x000000000020b220       0x68 ../bin/obj/DRVhandl.o
                                         0xa8 (size before relaxing)
 .eh_frame      0x000000000020b288       0xe8 ../bin/obj/multitasking.o
                                        0x13c (size before relaxing)
 .eh_frame      0x000000000020b370       0x84 ../bin/obj/v86c.o
                                         0xb0 (size before relaxing)
 .eh_frame      0x000000000020b3f4       0x8c ../bin/obj/vesa.o
                                         0xcc (size before relaxing)
 .eh_frame      0x000000000020b480       0x84 ../bin/obj/api_kernel.o
                                         0xb0 (size before relaxing)

.note.gnu.property
                0x000000000020b504       0x1c
 .note.gnu.property
                0x000000000020b504       0x1c ../bin/obj/stack.o

.rel.dyn        0x000000000020b520        0x0
 .rel.got       0x000000000020b520        0x0 ../bin/obj/stack.o
 .rel.iplt      0x000000000020b520        0x0 ../bin/obj/stack.o
 .rel.text      0x000000000020b520        0x0 ../bin/obj/stack.o

.data           0x000000000020b520       0x18
 *(.data)
 .data          0x000000000020b520        0x0 ../bin/obj/kc.o
 .data          0x000000000020b520        0x0 ../bin/obj/sys.o
 .data          0x000000000020b520        0x4 ../bin/obj/screen.o
                0x000000000020b520                color
 .data          0x000000000020b524        0x0 ../bin/obj/gdt.o
 .data          0x000000000020b524        0x4 ../bin/obj/hardw.o
                0x000000000020b524                CMOS_NMI_disable
 .data          0x000000000020b528        0x0 ../bin/obj/cpu.o
 .data          0x000000000020b528        0x0 ../bin/obj/isr.o
 .data          0x000000000020b528        0x0 ../bin/obj/util.o
 .data          0x000000000020b528        0x0 ../bin/obj/errorHandl.o
 .data          0x000000000020b528        0x4 ../bin/obj/keyboard.o
                0x000000000020b528                scancodeset
 .data          0x000000000020b52c        0x8 ../bin/obj/memory.o
                0x000000000020b52c                MEM_start
                0x000000000020b530                mem_table_entry
 .data          0x000000000020b534        0x0 ../bin/obj/pci.o
 .data          0x000000000020b534        0x0 ../bin/obj/ahci.o
 .data          0x000000000020b534        0x0 ../bin/obj/ATA.o
 .data          0x000000000020b534        0x0 ../bin/obj/fat.o
 .data          0x000000000020b534        0x0 ../bin/obj/hdd.o
 .data          0x000000000020b534        0x0 ../bin/obj/iso.o
 .data          0x000000000020b534        0x0 ../bin/obj/DRVhandl.o
 .data          0x000000000020b534        0x4 ../bin/obj/multitasking.o
                0x000000000020b534                isMultitasking
 .data          0x000000000020b538        0x0 ../bin/obj/v86c.o
 .data          0x000000000020b538        0x0 ../bin/obj/vesa.o
 .data          0x000000000020b538        0x0 ../bin/obj/api_kernel.o

.data.rel.local
                0x000000000020b538       0x10
 .data.rel.local
                0x000000000020b538        0x4 ../bin/obj/keyboard.o
                0x000000000020b538                keyboard_chars
 .data.rel.local
                0x000000000020b53c        0xc ../bin/obj/DRVhandl.o
                0x000000000020b53c                UNKOWN
                0x000000000020b540                EMPTY
                0x000000000020b544                VESA

.got            0x000000000020b548        0x0
 .got           0x000000000020b548        0x0 ../bin/obj/stack.o

.got.plt        0x000000000020b548        0xc
 .got.plt       0x000000000020b548        0xc ../bin/obj/stack.o
                0x000000000020b548                _GLOBAL_OFFSET_TABLE_

.igot.plt       0x000000000020b554        0x0
 .igot.plt      0x000000000020b554        0x0 ../bin/obj/stack.o

.bss            0x000000000020b560    0x465a0
 *(.bss)
 .bss           0x000000000020b560        0xc ../bin/obj/kc.o
                0x000000000020b560                KERNEL_FLAGS
 .bss           0x000000000020b56c        0x0 ../bin/obj/sys.o
 .bss           0x000000000020b56c       0x10 ../bin/obj/screen.o
                0x000000000020b56c                cursorX
                0x000000000020b570                cursorY
 *fill*         0x000000000020b57c        0x4 
 .bss           0x000000000020b580       0x56 ../bin/obj/gdt.o
 *fill*         0x000000000020b5d6        0x2 
 .bss           0x000000000020b5d8        0x8 ../bin/obj/hardw.o
 .bss           0x000000000020b5e0      0x826 ../bin/obj/cpu.o
 *fill*         0x000000000020be06        0x2 
 .bss           0x000000000020be08        0xc ../bin/obj/isr.o
                0x000000000020be08                sec
 .bss           0x000000000020be14       0x10 ../bin/obj/util.o
 .bss           0x000000000020be24        0x8 ../bin/obj/errorHandl.o
 .bss           0x000000000020be2c       0x10 ../bin/obj/keyboard.o
                0x000000000020be2c                code_bfr_loc
                0x000000000020be30                shift
 .bss           0x000000000020be3c        0x8 ../bin/obj/memory.o
 .bss           0x000000000020be44        0x8 ../bin/obj/pci.o
 .bss           0x000000000020be4c        0x8 ../bin/obj/ahci.o
 .bss           0x000000000020be54        0x8 ../bin/obj/ATA.o
 .bss           0x000000000020be5c       0x10 ../bin/obj/fat.o
 .bss           0x000000000020be6c        0x8 ../bin/obj/hdd.o
 .bss           0x000000000020be74        0x8 ../bin/obj/iso.o
 .bss           0x000000000020be7c        0x8 ../bin/obj/DRVhandl.o
 .bss           0x000000000020be84        0xd ../bin/obj/multitasking.o
                0x000000000020be84                CurrentTasks
 *fill*         0x000000000020be91        0x3 
 .bss           0x000000000020be94        0x8 ../bin/obj/v86c.o
 .bss           0x000000000020be9c        0x8 ../bin/obj/vesa.o
 .bss           0x000000000020bea4        0xc ../bin/obj/api_kernel.o
                0x000000000020bea4                next_procID
 .bss           0x000000000020beb0     0x1000 ../bin/obj/stack.o
                0x000000000020beb0                stack
                0x000000000020ceb0                end_stack
 *fill*         0x000000000020ceb0       0x10 
 COMMON         0x000000000020cec0     0x4348 ../bin/obj/kc.o
                0x000000000020cec0                BPB
                0x000000000020cee0                tasks
                0x0000000000210ae0                systeminfo
                0x0000000000210b54                current_vid_mode_inf
                0x0000000000210b58                segments
                0x0000000000210b5c                vfs_info
                0x0000000000210b80                pci_devices
                0x0000000000211180                devices
                0x0000000000211200                func_ptr
                0x0000000000211204                abar
 *fill*         0x0000000000211208       0x18 
 COMMON         0x0000000000211220       0x68 ../bin/obj/gdt.o
                0x0000000000211220                tss
 COMMON         0x0000000000211288        0x8 ../bin/obj/cpu.o
                0x0000000000211288                VendorID
                0x000000000021128c                cpuvend
 COMMON         0x0000000000211290       0x11 ../bin/obj/isr.o
                0x0000000000211290                before_int_ax
                0x0000000000211292                tckcounter
                0x0000000000211294                int_stack
                0x0000000000211298                last_interrupt
                0x000000000021129a                before_int_di
                0x000000000021129c                counter
                0x000000000021129e                mouse_cycle
                0x000000000021129f                mouse_byte
 *fill*         0x00000000002112a1        0x3 
 COMMON         0x00000000002112a4        0x8 ../bin/obj/keyboard.o
                0x00000000002112a4                key_bfr
                0x00000000002112a8                key_bfr_codes
 *fill*         0x00000000002112ac       0x14 
 COMMON         0x00000000002112c0    0x40004 ../bin/obj/memory.o
                0x00000000002112c0                mem_table
                0x00000000002512c0                MEM_MAX
 COMMON         0x00000000002512c4        0x8 ../bin/obj/ATA.o
                0x00000000002512c4                prdt
                0x00000000002512c8                BMR
 COMMON         0x00000000002512cc        0x4 ../bin/obj/fat.o
                0x00000000002512cc                ROOTDIR
 COMMON         0x00000000002512d0        0x4 ../bin/obj/vesa.o
                0x00000000002512d0                screen
 *fill*         0x00000000002512d4        0xc 
 COMMON         0x00000000002512e0      0x820 ../bin/obj/api_kernel.o
                0x00000000002512e0                response_init
                0x00000000002512e4                response_default
                0x0000000000251300                api_processes
LOAD ../bin/obj/kasm.o
LOAD ../bin/obj/kc.o
LOAD ../bin/obj/sys.o
LOAD ../bin/obj/screen.o
LOAD ../bin/obj/gdt.o
LOAD ../bin/obj/gdtasm.o
LOAD ../bin/obj/hardw.o
LOAD ../bin/obj/cpu.o
LOAD ../bin/obj/isr.o
LOAD ../bin/obj/util.o
LOAD ../bin/obj/idta.o
LOAD ../bin/obj/isra.o
LOAD ../bin/obj/asm.o
LOAD ../bin/obj/errorHandl.o
LOAD ../bin/obj/keyboard.o
LOAD ../bin/obj/memory.o
LOAD ../bin/obj/pci.o
LOAD ../bin/obj/ahci.o
LOAD ../bin/obj/ATA.o
LOAD ../bin/obj/fat.o
LOAD ../bin/obj/hdd.o
LOAD ../bin/obj/iso.o
LOAD ../bin/obj/DRVhandl.o
LOAD ../bin/obj/v86.o
LOAD ../bin/obj/multitasking.o
LOAD ../bin/obj/v86c.o
LOAD ../bin/obj/vesa.o
LOAD ../bin/obj/api_kernel.o
LOAD ../bin/obj/stack.o
OUTPUT(../bin/kernel/kernel.sys elf32-i386)

.comment        0x0000000000000000       0x29
 .comment       0x0000000000000000       0x29 ../bin/obj/kc.o
                                         0x2a (size before relaxing)
 .comment       0x0000000000000029       0x2a ../bin/obj/sys.o
 .comment       0x0000000000000029       0x2a ../bin/obj/screen.o
 .comment       0x0000000000000029       0x2a ../bin/obj/gdt.o
 .comment       0x0000000000000029       0x2a ../bin/obj/hardw.o
 .comment       0x0000000000000029       0x2a ../bin/obj/cpu.o
 .comment       0x0000000000000029       0x2a ../bin/obj/isr.o
 .comment       0x0000000000000029       0x2a ../bin/obj/util.o
 .comment       0x0000000000000029       0x2a ../bin/obj/errorHandl.o
 .comment       0x0000000000000029       0x2a ../bin/obj/keyboard.o
 .comment       0x0000000000000029       0x2a ../bin/obj/memory.o
 .comment       0x0000000000000029       0x2a ../bin/obj/pci.o
 .comment       0x0000000000000029       0x2a ../bin/obj/ahci.o
 .comment       0x0000000000000029       0x2a ../bin/obj/ATA.o
 .comment       0x0000000000000029       0x2a ../bin/obj/fat.o
 .comment       0x0000000000000029       0x2a ../bin/obj/hdd.o
 .comment       0x0000000000000029       0x2a ../bin/obj/iso.o
 .comment       0x0000000000000029       0x2a ../bin/obj/DRVhandl.o
 .comment       0x0000000000000029       0x2a ../bin/obj/multitasking.o
 .comment       0x0000000000000029       0x2a ../bin/obj/v86c.o
 .comment       0x0000000000000029       0x2a ../bin/obj/vesa.o
 .comment       0x0000000000000029       0x2a ../bin/obj/api_kernel.o

.note.GNU-stack
                0x0000000000000000        0x0
 .note.GNU-stack
                0x0000000000000000        0x0 ../bin/obj/kc.o
 .note.GNU-stack
                0x0000000000000000        0x0 ../bin/obj/sys.o
 .note.GNU-stack
                0x0000000000000000        0x0 ../bin/obj/screen.o
 .note.GNU-stack
                0x0000000000000000        0x0 ../bin/obj/gdt.o
 .note.GNU-stack
                0x0000000000000000        0x0 ../bin/obj/hardw.o
 .note.GNU-stack
                0x0000000000000000        0x0 ../bin/obj/cpu.o
 .note.GNU-stack
                0x0000000000000000        0x0 ../bin/obj/isr.o
 .note.GNU-stack
                0x0000000000000000        0x0 ../bin/obj/util.o
 .note.GNU-stack
                0x0000000000000000        0x0 ../bin/obj/errorHandl.o
 .note.GNU-stack
                0x0000000000000000        0x0 ../bin/obj/keyboard.o
 .note.GNU-stack
                0x0000000000000000        0x0 ../bin/obj/memory.o
 .note.GNU-stack
                0x0000000000000000        0x0 ../bin/obj/pci.o
 .note.GNU-stack
                0x0000000000000000        0x0 ../bin/obj/ahci.o
 .note.GNU-stack
                0x0000000000000000        0x0 ../bin/obj/ATA.o
 .note.GNU-stack
                0x0000000000000000        0x0 ../bin/obj/fat.o
 .note.GNU-stack
                0x0000000000000000        0x0 ../bin/obj/hdd.o
 .note.GNU-stack
                0x0000000000000000        0x0 ../bin/obj/iso.o
 .note.GNU-stack
                0x0000000000000000        0x0 ../bin/obj/DRVhandl.o
 .note.GNU-stack
                0x0000000000000000        0x0 ../bin/obj/multitasking.o
 .note.GNU-stack
                0x0000000000000000        0x0 ../bin/obj/v86c.o
 .note.GNU-stack
                0x0000000000000000        0x0 ../bin/obj/vesa.o
 .note.GNU-stack
                0x0000000000000000        0x0 ../bin/obj/api_kernel.o
